target datalayout = "e-m:e-p270:32:32-p271:32:32-p272:64:64-i64:64-i128:128-f80:128-n8:16:32:64-S128"
target triple = "x86_64-pc-linux-gnu"

%struct._zend_iconv_globals = type { ptr, ptr, ptr }
%struct._zend_executor_globals = type { %struct._zval_struct, %struct._zval_struct, [32 x ptr], ptr, ptr, %struct._zend_array, %struct._zend_array, ptr, i32, i8, %struct._zval_struct, i32, ptr, ptr, ptr, ptr, ptr, ptr, i64, ptr, ptr, i32, ptr, i32, i64, i32, i32, i32, i8, i8, %struct.zend_atomic_bool_s, %struct.zend_atomic_bool_s, ptr, i64, ptr, ptr, %struct._zend_array, %struct._zend_array, i32, i8, %struct._zval_struct, %struct._zval_struct, %struct._zend_stack, %struct._zend_stack, %struct._zend_stack, ptr, i32, i32, i64, ptr, ptr, ptr, %struct._zend_objects_store, %struct._zend_lazy_objects_store, ptr, ptr, ptr, [3 x %struct._zend_op], ptr, i8, i8, i64, i32, i32, ptr, [16 x %struct._HashTableIterator], ptr, %union._zend_function, %struct._zend_op, %struct._zend_array, i64, %struct.zend_get_gc_buffer, ptr, ptr, ptr, i64, i8, i32, ptr, ptr, i64, %struct._zend_call_stack, i64, i64, %struct._zend_strtod_state, [6 x ptr] }
%struct.zend_atomic_bool_s = type { i8 }
%struct._zval_struct = type { %union._zend_value, %union.anon, %union.anon.2 }
%union._zend_value = type { i64 }
%union.anon = type { i32 }
%union.anon.2 = type { i32 }
%struct._zend_stack = type { i32, i32, i32, ptr }
%struct._zend_objects_store = type { ptr, i32, i32, i32 }
%struct._zend_lazy_objects_store = type { %struct._zend_array }
%struct._HashTableIterator = type { ptr, i32, i32 }
%union._zend_function = type { %struct._zend_op_array }
%struct._zend_op_array = type { i8, [3 x i8], i32, ptr, ptr, ptr, i32, i32, ptr, ptr, ptr, ptr, i32, ptr, i32, i32, i32, ptr, ptr, ptr, ptr, ptr, i32, i32, ptr, ptr, ptr, i32, i32, i32, i32, ptr, ptr, [6 x ptr] }
%struct._zend_op = type { ptr, %union._znode_op, %union._znode_op, %union._znode_op, i32, i32, i8, i8, i8, i8 }
%union._znode_op = type { i32 }
%struct._zend_array = type { %struct._zend_refcounted_h, %union.anon.4, i32, %union.anon.6, i32, i32, i32, i32, i64, ptr }
%struct._zend_refcounted_h = type { i32, %union.anon.3 }
%union.anon.3 = type { i32 }
%union.anon.4 = type { i32 }
%union.anon.6 = type { ptr }
%struct.zend_get_gc_buffer = type { ptr, ptr, ptr }
%struct._zend_call_stack = type { ptr, i64 }
%struct._zend_strtod_state = type { [8 x ptr], ptr, ptr }
%struct._zend_string = type { %struct._zend_refcounted_h, i64, i64, [1 x i8] }
%struct._zend_execute_data = type { ptr, ptr, ptr, ptr, %struct._zval_struct, ptr, ptr, ptr, ptr }

@iconv_globals = hidden global %struct._zend_iconv_globals zeroinitializer, align 8
@executor_globals = external global %struct._zend_executor_globals, align 8
@.str.11 = private unnamed_addr constant [71 x i8] c"Encoding parameter exceeds the maximum allowed length of %d characters\00", align 1
@_generic_superset_name = internal constant [8 x i8] c"UCS-4LE\00", align 1
@.str.13 = private unnamed_addr constant [7 x i8] c"SS|ls!\00", align 1
@.str.14 = private unnamed_addr constant [45 x i8] c"must be contained in argument #1 ($haystack)\00", align 1

; Function Attrs: nounwind uwtable
define internal ptr @get_internal_encoding() #0 {
  %1 = alloca ptr, align 8
  %2 = load ptr, ptr getelementptr inbounds nuw (%struct._zend_iconv_globals, ptr @iconv_globals, i32 0, i32 1), align 8, !tbaa !20
  %3 = icmp ne ptr %2, null
  br i1 %3, label %4, label %12

4:                                                ; preds = %0
  %5 = load ptr, ptr getelementptr inbounds nuw (%struct._zend_iconv_globals, ptr @iconv_globals, i32 0, i32 1), align 8, !tbaa !20
  %6 = getelementptr inbounds i8, ptr %5, i64 0
  %7 = load i8, ptr %6, align 1, !tbaa !13
  %8 = sext i8 %7 to i32
  %9 = icmp ne i32 %8, 0
  br i1 %9, label %10, label %12

10:                                               ; preds = %4
  %11 = load ptr, ptr getelementptr inbounds nuw (%struct._zend_iconv_globals, ptr @iconv_globals, i32 0, i32 1), align 8, !tbaa !20
  store ptr %11, ptr %1, align 8
  br label %14

12:                                               ; preds = %4, %0
  %13 = call ptr @php_get_internal_encoding()
  store ptr %13, ptr %1, align 8
  br label %14

14:                                               ; preds = %12, %10
  %15 = load ptr, ptr %1, align 8
  ret ptr %15
}

; Function Attrs: nounwind uwtable
define hidden void @zif_iconv_strpos(ptr noundef %0, ptr noundef %1) #0 {
  %3 = alloca ptr, align 8
  %4 = alloca ptr, align 8
  %5 = alloca ptr, align 8
  %6 = alloca i64, align 8
  %7 = alloca i64, align 8
  %8 = alloca ptr, align 8
  %9 = alloca ptr, align 8
  %10 = alloca i64, align 8
  %11 = alloca i32, align 4
  %12 = alloca i64, align 8
  %13 = alloca i32, align 4
  %14 = alloca ptr, align 8
  store ptr %0, ptr %3, align 8, !tbaa !39
  store ptr %1, ptr %4, align 8, !tbaa !11
  call void @llvm.lifetime.start.p0(i64 8, ptr %5) #15
  store ptr null, ptr %5, align 8, !tbaa !23
  call void @llvm.lifetime.start.p0(i64 8, ptr %6) #15
  call void @llvm.lifetime.start.p0(i64 8, ptr %7) #15
  call void @llvm.lifetime.start.p0(i64 8, ptr %8) #15
  call void @llvm.lifetime.start.p0(i64 8, ptr %9) #15
  call void @llvm.lifetime.start.p0(i64 8, ptr %10) #15
  store i64 0, ptr %10, align 8, !tbaa !24
  call void @llvm.lifetime.start.p0(i64 4, ptr %11) #15
  call void @llvm.lifetime.start.p0(i64 8, ptr %12) #15
  %15 = load ptr, ptr %3, align 8, !tbaa !39
  %16 = getelementptr inbounds nuw %struct._zend_execute_data, ptr %15, i32 0, i32 4
  %17 = getelementptr inbounds nuw %struct._zval_struct, ptr %16, i32 0, i32 2
  %18 = load i32, ptr %17, align 4, !tbaa !13
  %19 = call i32 (i32, ptr, ...) @zend_parse_parameters(i32 noundef %18, ptr noundef @.str.13, ptr noundef %8, ptr noundef %9, ptr noundef %10, ptr noundef %5, ptr noundef %6)
  %20 = icmp eq i32 %19, -1
  br i1 %20, label %21, label %27

21:                                               ; preds = %2
  br label %22

22:                                               ; preds = %21
  %23 = load ptr, ptr getelementptr inbounds nuw (%struct._zend_executor_globals, ptr @executor_globals, i32 0, i32 54), align 8, !tbaa !41
  %24 = icmp ne ptr %23, null
  call void @llvm.assume(i1 %24)
  store i32 1, ptr %13, align 4
  br label %137

25:                                               ; No predecessors!
  br label %26

26:                                               ; preds = %25
  br label %27

27:                                               ; preds = %26, %2
  %28 = load ptr, ptr %5, align 8, !tbaa !23
  %29 = icmp eq ptr %28, null
  br i1 %29, label %30, label %32

30:                                               ; preds = %27
  %31 = call ptr @get_internal_encoding()
  store ptr %31, ptr %5, align 8, !tbaa !23
  br label %45

32:                                               ; preds = %27
  %33 = load i64, ptr %6, align 8, !tbaa !24
  %34 = icmp uge i64 %33, 64
  br i1 %34, label %35, label %44

35:                                               ; preds = %32
  call void (ptr, i32, ptr, ...) @php_error_docref(ptr noundef null, i32 noundef 2, ptr noundef @.str.11, i32 noundef 64)
  br label %36

36:                                               ; preds = %35
  br label %37

37:                                               ; preds = %36
  %38 = load ptr, ptr %4, align 8, !tbaa !11
  %39 = getelementptr inbounds nuw %struct._zval_struct, ptr %38, i32 0, i32 1
  store i32 2, ptr %39, align 8, !tbaa !13
  br label %40

40:                                               ; preds = %37
  br label %41

41:                                               ; preds = %40
  store i32 1, ptr %13, align 4
  br label %137

42:                                               ; No predecessors!
  br label %43

43:                                               ; preds = %42
  br label %44

44:                                               ; preds = %43, %32
  br label %45

45:                                               ; preds = %44, %30
  %46 = load i64, ptr %10, align 8, !tbaa !24
  %47 = icmp slt i64 %46, 0
  br i1 %47, label %48, label %83

48:                                               ; preds = %45
  %49 = load ptr, ptr %8, align 8, !tbaa !28
  %50 = getelementptr inbounds nuw %struct._zend_string, ptr %49, i32 0, i32 3
  %51 = getelementptr inbounds [1 x i8], ptr %50, i64 0, i64 0
  %52 = load ptr, ptr %8, align 8, !tbaa !28
  %53 = getelementptr inbounds nuw %struct._zend_string, ptr %52, i32 0, i32 2
  %54 = load i64, ptr %53, align 8, !tbaa !31
  %55 = load ptr, ptr %5, align 8, !tbaa !23
  %56 = call i32 @_php_iconv_strlen(ptr noundef %7, ptr noundef %51, i64 noundef %54, ptr noundef %55)
  store i32 %56, ptr %11, align 4, !tbaa !4
  %57 = load i32, ptr %11, align 4, !tbaa !4
  %58 = icmp ne i32 %57, 0
  br i1 %58, label %59, label %70

59:                                               ; preds = %48
  %60 = load i32, ptr %11, align 4, !tbaa !4
  %61 = load ptr, ptr %5, align 8, !tbaa !23
  call void @_php_iconv_show_error(i32 noundef %60, ptr noundef @_generic_superset_name, ptr noundef %61)
  br label %62

62:                                               ; preds = %59
  br label %63

63:                                               ; preds = %62
  %64 = load ptr, ptr %4, align 8, !tbaa !11
  %65 = getelementptr inbounds nuw %struct._zval_struct, ptr %64, i32 0, i32 1
  store i32 2, ptr %65, align 8, !tbaa !13
  br label %66

66:                                               ; preds = %63
  br label %67

67:                                               ; preds = %66
  store i32 1, ptr %13, align 4
  br label %137

68:                                               ; No predecessors!
  br label %69

69:                                               ; preds = %68
  br label %70

70:                                               ; preds = %69, %48
  %71 = load i64, ptr %7, align 8, !tbaa !24
  %72 = load i64, ptr %10, align 8, !tbaa !24
  %73 = add i64 %72, %71
  store i64 %73, ptr %10, align 8, !tbaa !24
  %74 = load i64, ptr %10, align 8, !tbaa !24
  %75 = icmp slt i64 %74, 0
  br i1 %75, label %76, label %82

76:                                               ; preds = %70
  call void (i32, ptr, ...) @zend_argument_value_error(i32 noundef 3, ptr noundef @.str.14)
  br label %77

77:                                               ; preds = %76
  %78 = load ptr, ptr getelementptr inbounds nuw (%struct._zend_executor_globals, ptr @executor_globals, i32 0, i32 54), align 8, !tbaa !41
  %79 = icmp ne ptr %78, null
  call void @llvm.assume(i1 %79)
  store i32 1, ptr %13, align 4
  br label %137

80:                                               ; No predecessors!
  br label %81

81:                                               ; preds = %80
  br label %82

82:                                               ; preds = %81, %70
  br label %83

83:                                               ; preds = %82, %45
  %84 = load ptr, ptr %9, align 8, !tbaa !28
  %85 = getelementptr inbounds nuw %struct._zend_string, ptr %84, i32 0, i32 2
  %86 = load i64, ptr %85, align 8, !tbaa !31
  %87 = icmp ult i64 %86, 1
  br i1 %87, label %88, label %97

88:                                               ; preds = %83
  br label %89

89:                                               ; preds = %88
  br label %90

90:                                               ; preds = %89
  %91 = load ptr, ptr %4, align 8, !tbaa !11
  %92 = getelementptr inbounds nuw %struct._zval_struct, ptr %91, i32 0, i32 1
  store i32 2, ptr %92, align 8, !tbaa !13
  br label %93

93:                                               ; preds = %90
  br label %94

94:                                               ; preds = %93
  store i32 1, ptr %13, align 4
  br label %137

95:                                               ; No predecessors!
  br label %96

96:                                               ; preds = %95
  br label %97

97:                                               ; preds = %96, %83
  %98 = load ptr, ptr %8, align 8, !tbaa !28
  %99 = getelementptr inbounds nuw %struct._zend_string, ptr %98, i32 0, i32 3
  %100 = getelementptr inbounds [1 x i8], ptr %99, i64 0, i64 0
  %101 = load ptr, ptr %8, align 8, !tbaa !28
  %102 = getelementptr inbounds nuw %struct._zend_string, ptr %101, i32 0, i32 2
  %103 = load i64, ptr %102, align 8, !tbaa !31
  %104 = load ptr, ptr %9, align 8, !tbaa !28
  %105 = getelementptr inbounds nuw %struct._zend_string, ptr %104, i32 0, i32 3
  %106 = getelementptr inbounds [1 x i8], ptr %105, i64 0, i64 0
  %107 = load ptr, ptr %9, align 8, !tbaa !28
  %108 = getelementptr inbounds nuw %struct._zend_string, ptr %107, i32 0, i32 2
  %109 = load i64, ptr %108, align 8, !tbaa !31
  %110 = load i64, ptr %10, align 8, !tbaa !24
  %111 = load ptr, ptr %5, align 8, !tbaa !23
  %112 = call i32 @_php_iconv_strpos(ptr noundef %12, ptr noundef %100, i64 noundef %103, ptr noundef %106, i64 noundef %109, i64 noundef %110, ptr noundef %111, i1 noundef zeroext false)
  store i32 %112, ptr %11, align 4, !tbaa !4
  %113 = load i32, ptr %11, align 4, !tbaa !4
  %114 = load ptr, ptr %5, align 8, !tbaa !23
  call void @_php_iconv_show_error(i32 noundef %113, ptr noundef @_generic_superset_name, ptr noundef %114)
  %115 = load i32, ptr %11, align 4, !tbaa !4
  %116 = icmp eq i32 %115, 0
  br i1 %116, label %117, label %130

117:                                              ; preds = %97
  %118 = load i64, ptr %12, align 8, !tbaa !24
  %119 = icmp ne i64 %118, -1
  br i1 %119, label %120, label %130

120:                                              ; preds = %117
  br label %121

121:                                              ; preds = %120
  call void @llvm.lifetime.start.p0(i64 8, ptr %14) #15
  %122 = load ptr, ptr %4, align 8, !tbaa !11
  store ptr %122, ptr %14, align 8, !tbaa !11
  %123 = load i64, ptr %12, align 8, !tbaa !24
  %124 = load ptr, ptr %14, align 8, !tbaa !11
  %125 = getelementptr inbounds nuw %struct._zval_struct, ptr %124, i32 0, i32 0
  store i64 %123, ptr %125, align 8, !tbaa !13
  %126 = load ptr, ptr %14, align 8, !tbaa !11
  %127 = getelementptr inbounds nuw %struct._zval_struct, ptr %126, i32 0, i32 1
  store i32 4, ptr %127, align 8, !tbaa !13
  call void @llvm.lifetime.end.p0(i64 8, ptr %14) #15
  br label %128

128:                                              ; preds = %121
  br label %129

129:                                              ; preds = %128
  br label %136

130:                                              ; preds = %117, %97
  br label %131

131:                                              ; preds = %130
  %132 = load ptr, ptr %4, align 8, !tbaa !11
  %133 = getelementptr inbounds nuw %struct._zval_struct, ptr %132, i32 0, i32 1
  store i32 2, ptr %133, align 8, !tbaa !13
  br label %134

134:                                              ; preds = %131
  br label %135

135:                                              ; preds = %134
  br label %136

136:                                              ; preds = %135, %129
  store i32 0, ptr %13, align 4
  br label %137

137:                                              ; preds = %136, %94, %77, %67, %41, %22
  call void @llvm.lifetime.end.p0(i64 8, ptr %12) #15
  call void @llvm.lifetime.end.p0(i64 4, ptr %11) #15
  call void @llvm.lifetime.end.p0(i64 8, ptr %10) #15
  call void @llvm.lifetime.end.p0(i64 8, ptr %9) #15
  call void @llvm.lifetime.end.p0(i64 8, ptr %8) #15
  call void @llvm.lifetime.end.p0(i64 8, ptr %7) #15
  call void @llvm.lifetime.end.p0(i64 8, ptr %6) #15
  call void @llvm.lifetime.end.p0(i64 8, ptr %5) #15
  %138 = load i32, ptr %13, align 4
  switch i32 %138, label %140 [
    i32 0, label %139
    i32 1, label %139
  ]

139:                                              ; preds = %137, %137
  ret void

140:                                              ; preds = %137
  unreachable
}