; Function Attrs: nounwind uwtable
define hidden void @zif_iconv_strpos(ptr noundef readonly captures(none) %0, ptr noundef writeonly captures(none) %1) #0 {
  %3 = alloca ptr, align 8
  %4 = alloca i64, align 8
  %5 = alloca i64, align 8
  %6 = alloca ptr, align 8
  %7 = alloca ptr, align 8
  %8 = alloca i64, align 8
  %9 = alloca i64, align 8
  call void @llvm.lifetime.start.p0(i64 8, ptr nonnull %3) #16
  store ptr null, ptr %3, align 8, !tbaa !7
  call void @llvm.lifetime.start.p0(i64 8, ptr nonnull %4) #16
  call void @llvm.lifetime.start.p0(i64 8, ptr nonnull %5) #16
  call void @llvm.lifetime.start.p0(i64 8, ptr nonnull %6) #16
  call void @llvm.lifetime.start.p0(i64 8, ptr nonnull %7) #16
  call void @llvm.lifetime.start.p0(i64 8, ptr nonnull %8) #16
  store i64 0, ptr %8, align 8, !tbaa !14
  call void @llvm.lifetime.start.p0(i64 8, ptr nonnull %9) #16
  %10 = getelementptr inbounds nuw i8, ptr %0, i64 44
  %11 = load i32, ptr %10, align 4, !tbaa !4
  %12 = call i32 (i32, ptr, ...) @zend_parse_parameters(i32 noundef %11, ptr noundef nonnull @.str.13, ptr noundef nonnull %6, ptr noundef nonnull %7, ptr noundef nonnull %8, ptr noundef nonnull %3, ptr noundef nonnull %4) #16
  %13 = icmp eq i32 %12, -1
  br i1 %13, label %14, label %17

14:                                               ; preds = %2
  %15 = load ptr, ptr getelementptr inbounds nuw (i8, ptr @executor_globals, i64 960), align 8, !tbaa !22
  %16 = icmp ne ptr %15, null
  call void @llvm.assume(i1 %16)
  br label %76

17:                                               ; preds = %2
  %18 = load ptr, ptr %3, align 8, !tbaa !7
  %19 = icmp eq ptr %18, null
  br i1 %19, label %20, label %26

20:                                               ; preds = %17
  %21 = load ptr, ptr getelementptr inbounds nuw (i8, ptr @iconv_globals, i64 8), align 8, !tbaa !52
  %.not.i = icmp eq ptr %21, null
  br i1 %.not.i, label %24, label %22

22:                                               ; preds = %20
  %23 = load i8, ptr %21, align 1, !tbaa !4
  %.not2.i = icmp eq i8 %23, 0
  br i1 %.not2.i, label %24, label %get_internal_encoding.exit

24:                                               ; preds = %22, %20
  %25 = call ptr @php_get_internal_encoding() #16
  br label %get_internal_encoding.exit

get_internal_encoding.exit:                       ; preds = %22, %24
  %.0.i = phi ptr [ %25, %24 ], [ %21, %22 ]
  store ptr %.0.i, ptr %3, align 8, !tbaa !7
  br label %31

26:                                               ; preds = %17
  %27 = load i64, ptr %4, align 8, !tbaa !14
  %28 = icmp ugt i64 %27, 63
  br i1 %28, label %29, label %31

29:                                               ; preds = %26
  call void (ptr, i32, ptr, ...) @php_error_docref(ptr noundef null, i32 noundef 2, ptr noundef nonnull @.str.11, i32 noundef 64) #16
  %30 = getelementptr inbounds nuw i8, ptr %1, i64 8
  store i32 2, ptr %30, align 8, !tbaa !4
  br label %76

31:                                               ; preds = %26, %get_internal_encoding.exit
  %32 = phi ptr [ %18, %26 ], [ %.0.i, %get_internal_encoding.exit ]
  %33 = load i64, ptr %8, align 8, !tbaa !14
  %34 = icmp slt i64 %33, 0
  br i1 %34, label %35, label %52

35:                                               ; preds = %31
  %36 = load ptr, ptr %6, align 8, !tbaa !10
  %37 = getelementptr inbounds nuw i8, ptr %36, i64 24
  %38 = getelementptr inbounds nuw i8, ptr %36, i64 16
  %39 = load i64, ptr %38, align 8, !tbaa !20
  %40 = call fastcc i32 @_php_iconv_strlen(ptr noundef %5, ptr noundef nonnull %37, i64 noundef %39, ptr noundef %32)
  %.not = icmp eq i32 %40, 0
  br i1 %.not, label %44, label %41

41:                                               ; preds = %35
  %42 = load ptr, ptr %3, align 8, !tbaa !7
  call fastcc void @_php_iconv_show_error(i32 noundef %40, ptr noundef nonnull @_generic_superset_name, ptr noundef %42)
  %43 = getelementptr inbounds nuw i8, ptr %1, i64 8
  store i32 2, ptr %43, align 8, !tbaa !4
  br label %76

44:                                               ; preds = %35
  %45 = load i64, ptr %5, align 8, !tbaa !14
  %46 = load i64, ptr %8, align 8, !tbaa !14
  %47 = add i64 %46, %45
  store i64 %47, ptr %8, align 8, !tbaa !14
  %48 = icmp slt i64 %47, 0
  br i1 %48, label %49, label %52

49:                                               ; preds = %44
  call void (i32, ptr, ...) @zend_argument_value_error(i32 noundef 3, ptr noundef nonnull @.str.14) #16
  %50 = load ptr, ptr getelementptr inbounds nuw (i8, ptr @executor_globals, i64 960), align 8, !tbaa !22
  %51 = icmp ne ptr %50, null
  call void @llvm.assume(i1 %51)
  br label %76

52:                                               ; preds = %44, %31
  %53 = phi i64 [ %47, %44 ], [ %33, %31 ]
  %54 = load ptr, ptr %7, align 8, !tbaa !10
  %55 = getelementptr inbounds nuw i8, ptr %54, i64 16
  %56 = load i64, ptr %55, align 8, !tbaa !20
  %57 = icmp eq i64 %56, 0
  br i1 %57, label %58, label %60

58:                                               ; preds = %52
  %59 = getelementptr inbounds nuw i8, ptr %1, i64 8
  store i32 2, ptr %59, align 8, !tbaa !4
  br label %76

60:                                               ; preds = %52
  %61 = load ptr, ptr %6, align 8, !tbaa !10
  %62 = getelementptr inbounds nuw i8, ptr %61, i64 24
  %63 = getelementptr inbounds nuw i8, ptr %61, i64 16
  %64 = load i64, ptr %63, align 8, !tbaa !20
  %65 = getelementptr inbounds nuw i8, ptr %54, i64 24
  %66 = load ptr, ptr %3, align 8, !tbaa !7
  %67 = call fastcc i32 @_php_iconv_strpos(ptr noundef %9, ptr noundef nonnull %62, i64 noundef %64, ptr noundef nonnull %65, i64 noundef %56, i64 noundef %53, ptr noundef %66, i1 noundef zeroext false)
  %68 = load ptr, ptr %3, align 8, !tbaa !7
  call fastcc void @_php_iconv_show_error(i32 noundef %67, ptr noundef nonnull @_generic_superset_name, ptr noundef %68)
  %69 = icmp eq i32 %67, 0
  %70 = load i64, ptr %9, align 8
  %71 = icmp ne i64 %70, -1
  %or.cond = select i1 %69, i1 %71, i1 false
  br i1 %or.cond, label %72, label %74

72:                                               ; preds = %60
  store i64 %70, ptr %1, align 8, !tbaa !4
  %73 = getelementptr inbounds nuw i8, ptr %1, i64 8
  store i32 4, ptr %73, align 8, !tbaa !4
  br label %76

74:                                               ; preds = %60
  %75 = getelementptr inbounds nuw i8, ptr %1, i64 8
  store i32 2, ptr %75, align 8, !tbaa !4
  br label %76

76:                                               ; preds = %72, %74, %58, %49, %41, %29, %14
  call void @llvm.lifetime.end.p0(i64 8, ptr nonnull %9) #16
  call void @llvm.lifetime.end.p0(i64 8, ptr nonnull %8) #16
  call void @llvm.lifetime.end.p0(i64 8, ptr nonnull %7) #16
  call void @llvm.lifetime.end.p0(i64 8, ptr nonnull %6) #16
  call void @llvm.lifetime.end.p0(i64 8, ptr nonnull %5) #16
  call void @llvm.lifetime.end.p0(i64 8, ptr nonnull %4) #16
  call void @llvm.lifetime.end.p0(i64 8, ptr nonnull %3) #16
  ret void
}